target datalayout = "e-m:e-p270:32:32-p271:32:32-p272:64:64-i64:64-i128:128-f80:128-n8:16:32:64-S128"
target triple = "x86_64-pc-linux-gnu"

%"class.std::optional" = type { %"struct.std::_Optional_base" }
%"struct.std::_Optional_base" = type { %"struct.std::_Optional_payload" }
%"struct.std::_Optional_payload" = type { %"struct.std::_Optional_payload_base.base", [3 x i8] }
%"struct.std::_Optional_payload_base.base" = type <{ %"union.std::_Optional_payload_base<unsigned int>::_Storage", i8 }>
%"union.std::_Optional_payload_base<unsigned int>::_Storage" = type { i32 }
%"struct.clang::interp::Descriptor" = type { %"class.llvm::PointerUnion", i32, i32, i32, i32, ptr, ptr, %"class.std::optional.2", i8, i8, i8, i8, i8, ptr, ptr, ptr }
%"class.llvm::PointerUnion" = type { %"class.llvm::pointer_union_detail::PointerUnionMembers" }
%"class.llvm::pointer_union_detail::PointerUnionMembers" = type { %"class.llvm::pointer_union_detail::PointerUnionMembers.0" }
%"class.llvm::pointer_union_detail::PointerUnionMembers.0" = type { %"class.llvm::pointer_union_detail::PointerUnionMembers.1" }
%"class.llvm::pointer_union_detail::PointerUnionMembers.1" = type { %"class.llvm::PointerIntPair" }
%"class.llvm::PointerIntPair" = type { %"struct.llvm::detail::PunnedPointer" }
%"struct.llvm::detail::PunnedPointer" = type { [8 x i8] }
%"class.std::optional.2" = type { %"struct.std::_Optional_base.3" }
%"struct.std::_Optional_base.3" = type { %"struct.std::_Optional_payload.5" }
%"struct.std::_Optional_payload.5" = type { %"struct.std::_Optional_payload_base.base.7", [3 x i8] }
%"struct.std::_Optional_payload_base.base.7" = type <{ %"union.std::_Optional_payload_base<clang::interp::PrimType>::_Storage", i8 }>
%"union.std::_Optional_payload_base<clang::interp::PrimType>::_Storage" = type { i32 }
%"struct.std::_Optional_payload_base" = type <{ %"union.std::_Optional_payload_base<unsigned int>::_Storage", i8, [3 x i8] }>
%"struct.std::_Optional_payload_base.6" = type <{ %"union.std::_Optional_payload_base<clang::interp::PrimType>::_Storage", i8, [3 x i8] }>

; Function Attrs: mustprogress nounwind uwtable
define linkonce_odr hidden void @_ZNSt22_Optional_payload_baseIN5clang6interp8PrimTypeEE8_StorageIS2_Lb1EEC2IJRS2_EEESt10in_place_tDpOT_(ptr noundef nonnull align 4 dereferenceable(4) %0, ptr noundef nonnull align 4 dereferenceable(4) %1) unnamed_addr #0 comdat align 2 {
  %3 = alloca ptr, align 8
  %4 = alloca ptr, align 8
  store ptr %0, ptr %3, align 8
  store ptr %1, ptr %4, align 8
  %5 = load ptr, ptr %3, align 8
  %6 = load ptr, ptr %4, align 8
  %7 = load i32, ptr %6, align 4
  store i32 %7, ptr %5, align 4
  ret void
}

; Function Attrs: mustprogress nounwind uwtable
define linkonce_odr hidden void @_ZNSt22_Optional_payload_baseIN5clang6interp8PrimTypeEEC2IJRS2_EEESt10in_place_tDpOT_(ptr noundef nonnull align 4 dereferenceable(5) %0, ptr noundef nonnull align 4 dereferenceable(4) %1) unnamed_addr #0 comdat align 2 {
  %3 = alloca ptr, align 8
  %4 = alloca ptr, align 8
  store ptr %0, ptr %3, align 8
  store ptr %1, ptr %4, align 8
  %5 = load ptr, ptr %3, align 8
  %6 = getelementptr inbounds nuw %"struct.std::_Optional_payload_base.6", ptr %5, i32 0, i32 0
  %7 = load ptr, ptr %4, align 8
  call void @_ZNSt22_Optional_payload_baseIN5clang6interp8PrimTypeEE8_StorageIS2_Lb1EEC2IJRS2_EEESt10in_place_tDpOT_(ptr noundef nonnull align 4 dereferenceable(4) %6, ptr noundef nonnull align 4 dereferenceable(4) %7)
  %8 = getelementptr inbounds nuw %"struct.std::_Optional_payload_base.6", ptr %5, i32 0, i32 1
  store i8 1, ptr %8, align 4
  ret void
}

; Function Attrs: mustprogress nounwind uwtable
define linkonce_odr hidden void @_ZNSt17_Optional_payloadIN5clang6interp8PrimTypeELb1ELb1ELb1EECI2St22_Optional_payload_baseIS2_EIJRS2_EEESt10in_place_tDpOT_(ptr noundef nonnull align 4 dereferenceable(5) %0, ptr noundef nonnull align 4 dereferenceable(4) %1) unnamed_addr #0 comdat align 2 {
  %3 = alloca ptr, align 8
  %4 = alloca ptr, align 8
  store ptr %0, ptr %3, align 8
  store ptr %1, ptr %4, align 8
  %5 = load ptr, ptr %3, align 8
  %6 = load ptr, ptr %4, align 8
  call void @_ZNSt22_Optional_payload_baseIN5clang6interp8PrimTypeEEC2IJRS2_EEESt10in_place_tDpOT_(ptr noundef nonnull align 4 dereferenceable(5) %5, ptr noundef nonnull align 4 dereferenceable(4) %6)
  ret void
}

; Function Attrs: mustprogress nounwind uwtable
define linkonce_odr hidden noundef nonnull align 4 dereferenceable(4) ptr @_ZNKSt22_Optional_payload_baseIjE6_M_getEv(ptr noundef nonnull align 4 dereferenceable(5) %0) #0 comdat align 2 {
  %2 = alloca ptr, align 8
  store ptr %0, ptr %2, align 8
  %3 = load ptr, ptr %2, align 8
  %4 = getelementptr inbounds nuw %"struct.std::_Optional_payload_base", ptr %3, i32 0, i32 0
  ret ptr %4
}

; Function Attrs: mustprogress nounwind uwtable
define linkonce_odr hidden void @_ZNSt14_Optional_baseIN5clang6interp8PrimTypeELb1ELb1EEC2IJRS2_ETnNSt9enable_ifIX18is_constructible_vIS2_DpT_EEbE4typeELb0EEESt10in_place_tDpOS7_(ptr noundef nonnull align 4 dereferenceable(8) %0, ptr noundef nonnull align 4 dereferenceable(4) %1) unnamed_addr #0 comdat align 2 {
  %3 = alloca ptr, align 8
  %4 = alloca ptr, align 8
  store ptr %0, ptr %3, align 8
  store ptr %1, ptr %4, align 8
  %5 = load ptr, ptr %3, align 8
  %6 = getelementptr inbounds nuw %"struct.std::_Optional_base.3", ptr %5, i32 0, i32 0
  %7 = load ptr, ptr %4, align 8
  call void @_ZNSt17_Optional_payloadIN5clang6interp8PrimTypeELb1ELb1ELb1EECI2St22_Optional_payload_baseIS2_EIJRS2_EEESt10in_place_tDpOT_(ptr noundef nonnull align 4 dereferenceable(5) %6, ptr noundef nonnull align 4 dereferenceable(4) %7)
  ret void
}

; Function Attrs: mustprogress nounwind uwtable
define linkonce_odr hidden noundef nonnull align 4 dereferenceable(4) ptr @_ZNKSt19_Optional_base_implIjSt14_Optional_baseIjLb1ELb1EEE6_M_getEv(ptr noundef nonnull align 1 dereferenceable(1) %0) #0 comdat align 2 {
  %2 = alloca ptr, align 8
  store ptr %0, ptr %2, align 8
  %3 = load ptr, ptr %2, align 8
  br label %4

4:                                                ; preds = %1
  br label %5

5:                                                ; preds = %4
  %6 = getelementptr inbounds nuw %"struct.std::_Optional_base", ptr %3, i32 0, i32 0
  %7 = call noundef nonnull align 4 dereferenceable(4) ptr @_ZNKSt22_Optional_payload_baseIjE6_M_getEv(ptr noundef nonnull align 4 dereferenceable(5) %6) #11
  ret ptr %7
}

; Function Attrs: mustprogress nounwind uwtable
define linkonce_odr hidden noundef zeroext i1 @_ZNKSt19_Optional_base_implIjSt14_Optional_baseIjLb1ELb1EEE13_M_is_engagedEv(ptr noundef nonnull align 1 dereferenceable(1) %0) #0 comdat align 2 {
  %2 = alloca ptr, align 8
  store ptr %0, ptr %2, align 8
  %3 = load ptr, ptr %2, align 8
  %4 = getelementptr inbounds nuw %"struct.std::_Optional_base", ptr %3, i32 0, i32 0
  %5 = getelementptr inbounds nuw %"struct.std::_Optional_payload_base", ptr %4, i32 0, i32 1
  %6 = load i8, ptr %5, align 4
  %7 = trunc i8 %6 to i1
  ret i1 %7
}

; Function Attrs: mustprogress nounwind uwtable
define internal noundef ptr @_ZL11getMovePrimN5clang6interp8PrimTypeE(i32 noundef %0) #0 {
  %2 = alloca ptr, align 8
  %3 = alloca i32, align 4
  store i32 %0, ptr %3, align 4
  %4 = load i32, ptr %3, align 4
  %5 = icmp eq i32 %4, 11
  br i1 %5, label %6, label %7

6:                                                ; preds = %1
  store ptr @_ZL6moveTyIN5clang6interp8FloatingEEvPNS1_5BlockEPSt4byteS6_PKNS1_10DescriptorE, ptr %2, align 8
  br label %25

7:                                                ; preds = %1
  %8 = load i32, ptr %3, align 4
  %9 = icmp eq i32 %8, 8
  br i1 %9, label %10, label %11

10:                                               ; preds = %7
  store ptr @_ZL6moveTyIN5clang6interp10IntegralAPILb0EEEEvPNS1_5BlockEPSt4byteS7_PKNS1_10DescriptorE, ptr %2, align 8
  br label %25

11:                                               ; preds = %7
  %12 = load i32, ptr %3, align 4
  %13 = icmp eq i32 %12, 9
  br i1 %13, label %14, label %15

14:                                               ; preds = %11
  store ptr @_ZL6moveTyIN5clang6interp10IntegralAPILb1EEEEvPNS1_5BlockEPSt4byteS7_PKNS1_10DescriptorE, ptr %2, align 8
  br label %25

15:                                               ; preds = %11
  %16 = load i32, ptr %3, align 4
  %17 = icmp eq i32 %16, 14
  br i1 %17, label %18, label %19

18:                                               ; preds = %15
  store ptr @_ZL6moveTyIN5clang6interp13MemberPointerEEvPNS1_5BlockEPSt4byteS6_PKNS1_10DescriptorE, ptr %2, align 8
  br label %25

19:                                               ; preds = %15
  br label %20

20:                                               ; preds = %19
  %21 = load i32, ptr %3, align 4
  switch i32 %21, label %23 [
    i32 12, label %22
  ]

22:                                               ; preds = %20
  store ptr @_ZL6moveTyIN5clang6interp7PointerEEvPNS1_5BlockEPSt4byteS6_PKNS1_10DescriptorE, ptr %2, align 8
  br label %25

23:                                               ; preds = %20
  store ptr null, ptr %2, align 8
  br label %25

24:                                               ; No predecessors!
  call void @llvm.trap()
  unreachable

25:                                               ; preds = %23, %22, %18, %14, %10, %6
  %26 = load ptr, ptr %2, align 8
  ret ptr %26
}

; Function Attrs: mustprogress nounwind uwtable
define internal noundef ptr @_ZL11getDtorPrimN5clang6interp8PrimTypeE(i32 noundef %0) #0 {
  %2 = alloca ptr, align 8
  %3 = alloca i32, align 4
  store i32 %0, ptr %3, align 4
  %4 = load i32, ptr %3, align 4
  %5 = icmp eq i32 %4, 11
  br i1 %5, label %6, label %7

6:                                                ; preds = %1
  store ptr @_ZL6dtorTyIN5clang6interp8FloatingEEvPNS1_5BlockEPSt4bytePKNS1_10DescriptorE, ptr %2, align 8
  br label %25

7:                                                ; preds = %1
  %8 = load i32, ptr %3, align 4
  %9 = icmp eq i32 %8, 8
  br i1 %9, label %10, label %11

10:                                               ; preds = %7
  store ptr @_ZL6dtorTyIN5clang6interp10IntegralAPILb0EEEEvPNS1_5BlockEPSt4bytePKNS1_10DescriptorE, ptr %2, align 8
  br label %25

11:                                               ; preds = %7
  %12 = load i32, ptr %3, align 4
  %13 = icmp eq i32 %12, 9
  br i1 %13, label %14, label %15

14:                                               ; preds = %11
  store ptr @_ZL6dtorTyIN5clang6interp10IntegralAPILb1EEEEvPNS1_5BlockEPSt4bytePKNS1_10DescriptorE, ptr %2, align 8
  br label %25

15:                                               ; preds = %11
  %16 = load i32, ptr %3, align 4
  %17 = icmp eq i32 %16, 14
  br i1 %17, label %18, label %19

18:                                               ; preds = %15
  store ptr @_ZL6dtorTyIN5clang6interp13MemberPointerEEvPNS1_5BlockEPSt4bytePKNS1_10DescriptorE, ptr %2, align 8
  br label %25

19:                                               ; preds = %15
  br label %20

20:                                               ; preds = %19
  %21 = load i32, ptr %3, align 4
  switch i32 %21, label %23 [
    i32 12, label %22
  ]

22:                                               ; preds = %20
  store ptr @_ZL6dtorTyIN5clang6interp7PointerEEvPNS1_5BlockEPSt4bytePKNS1_10DescriptorE, ptr %2, align 8
  br label %25

23:                                               ; preds = %20
  store ptr null, ptr %2, align 8
  br label %25

24:                                               ; No predecessors!
  call void @llvm.trap()
  unreachable

25:                                               ; preds = %23, %22, %18, %14, %10, %6
  %26 = load ptr, ptr %2, align 8
  ret ptr %26
}

; Function Attrs: mustprogress nounwind uwtable
define internal noundef ptr @_ZL11getCtorPrimN5clang6interp8PrimTypeE(i32 noundef %0) #0 {
  %2 = alloca ptr, align 8
  %3 = alloca i32, align 4
  store i32 %0, ptr %3, align 4
  %4 = load i32, ptr %3, align 4
  %5 = icmp eq i32 %4, 11
  br i1 %5, label %6, label %7

6:                                                ; preds = %1
  store ptr @_ZL6ctorTyIN5clang6interp8FloatingEEvPNS1_5BlockEPSt4bytebbbbPKNS1_10DescriptorE, ptr %2, align 8
  br label %25

7:                                                ; preds = %1
  %8 = load i32, ptr %3, align 4
  %9 = icmp eq i32 %8, 8
  br i1 %9, label %10, label %11

10:                                               ; preds = %7
  store ptr @_ZL6ctorTyIN5clang6interp10IntegralAPILb0EEEEvPNS1_5BlockEPSt4bytebbbbPKNS1_10DescriptorE, ptr %2, align 8
  br label %25

11:                                               ; preds = %7
  %12 = load i32, ptr %3, align 4
  %13 = icmp eq i32 %12, 9
  br i1 %13, label %14, label %15

14:                                               ; preds = %11
  store ptr @_ZL6ctorTyIN5clang6interp10IntegralAPILb1EEEEvPNS1_5BlockEPSt4bytebbbbPKNS1_10DescriptorE, ptr %2, align 8
  br label %25

15:                                               ; preds = %11
  %16 = load i32, ptr %3, align 4
  %17 = icmp eq i32 %16, 14
  br i1 %17, label %18, label %19

18:                                               ; preds = %15
  store ptr @_ZL6ctorTyIN5clang6interp13MemberPointerEEvPNS1_5BlockEPSt4bytebbbbPKNS1_10DescriptorE, ptr %2, align 8
  br label %25

19:                                               ; preds = %15
  br label %20

20:                                               ; preds = %19
  %21 = load i32, ptr %3, align 4
  switch i32 %21, label %23 [
    i32 12, label %22
  ]

22:                                               ; preds = %20
  store ptr @_ZL6ctorTyIN5clang6interp7PointerEEvPNS1_5BlockEPSt4bytebbbbPKNS1_10DescriptorE, ptr %2, align 8
  br label %25

23:                                               ; preds = %20
  store ptr null, ptr %2, align 8
  br label %25

24:                                               ; No predecessors!
  call void @llvm.trap()
  unreachable

25:                                               ; preds = %23, %22, %18, %14, %10, %6
  %26 = load ptr, ptr %2, align 8
  ret ptr %26
}

; Function Attrs: mustprogress nounwind uwtable
define linkonce_odr hidden void @_ZNSt8optionalIN5clang6interp8PrimTypeEEC2IRS2_TnNSt9enable_ifIX7__and_vISt6__not_ISt7is_sameIS3_NSt9remove_cvINSt16remove_referenceIT_E4typeEE4typeEEES7_IS8_ISt10in_place_tSF_EESt16is_constructibleIS2_JSB_EESt14is_convertibleISB_S2_EEEbE4typeELb1EEEOSB_(ptr noundef nonnull align 4 dereferenceable(8) %0, ptr noundef nonnull align 4 dereferenceable(4) %1) unnamed_addr #0 comdat align 2 {
  %3 = alloca ptr, align 8
  %4 = alloca ptr, align 8
  store ptr %0, ptr %3, align 8
  store ptr %1, ptr %4, align 8
  %5 = load ptr, ptr %3, align 8
  %6 = load ptr, ptr %4, align 8
  call void @_ZNSt14_Optional_baseIN5clang6interp8PrimTypeELb1ELb1EEC2IJRS2_ETnNSt9enable_ifIX18is_constructible_vIS2_DpT_EEbE4typeELb0EEESt10in_place_tDpOS7_(ptr noundef nonnull align 4 dereferenceable(8) %5, ptr noundef nonnull align 4 dereferenceable(4) %6)
  ret void
}

; Function Attrs: mustprogress nounwind uwtable
define linkonce_odr hidden noundef i64 @_ZN5clang6interp5alignEm(i64 noundef %0) #0 comdat {
  %2 = alloca i64, align 8
  store i64 %0, ptr %2, align 8
  %3 = load i64, ptr %2, align 8
  %4 = add i64 %3, 8
  %5 = sub i64 %4, 1
  %6 = udiv i64 %5, 8
  %7 = mul i64 %6, 8
  ret i64 %7
}

; Function Attrs: mustprogress nounwind uwtable
define linkonce_odr hidden noundef i32 @_ZNKRSt8optionalIjE8value_orIiEEjOT_(ptr noundef nonnull align 4 dereferenceable(8) %0, ptr noundef nonnull align 4 dereferenceable(4) %1) #0 comdat align 2 {
  %3 = alloca i32, align 4
  %4 = alloca ptr, align 8
  %5 = alloca ptr, align 8
  store ptr %0, ptr %4, align 8
  store ptr %1, ptr %5, align 8
  %6 = load ptr, ptr %4, align 8
  %7 = call noundef zeroext i1 @_ZNKSt19_Optional_base_implIjSt14_Optional_baseIjLb1ELb1EEE13_M_is_engagedEv(ptr noundef nonnull align 1 dereferenceable(1) %6) #11
  br i1 %7, label %8, label %11

8:                                                ; preds = %2
  %9 = call noundef nonnull align 4 dereferenceable(4) ptr @_ZNKSt19_Optional_base_implIjSt14_Optional_baseIjLb1ELb1EEE6_M_getEv(ptr noundef nonnull align 1 dereferenceable(1) %6) #11
  %10 = load i32, ptr %9, align 4
  store i32 %10, ptr %3, align 4
  br label %14

11:                                               ; preds = %2
  %12 = load ptr, ptr %5, align 8
  %13 = load i32, ptr %12, align 4
  store i32 %13, ptr %3, align 4
  br label %14

14:                                               ; preds = %11, %8
  %15 = load i32, ptr %3, align 4
  ret i32 %15
}

; Function Attrs: mustprogress nounwind uwtable
define dso_local void @_ZN5clang6interp10DescriptorC2ERKN4llvm12PointerUnionIJPKNS_4DeclEPKNS_4ExprEEEENS0_8PrimTypeESt8optionalIjEbbb(ptr noundef nonnull align 8 dereferenceable(80) %0, ptr noundef nonnull align 8 dereferenceable(8) %1, i32 noundef %2, i64 %3, i1 noundef zeroext %4, i1 noundef zeroext %5, i1 noundef zeroext %6) unnamed_addr #0 align 2 {
  %8 = alloca %"class.std::optional", align 4
  %9 = alloca ptr, align 8
  %10 = alloca ptr, align 8
  %11 = alloca i32, align 4
  %12 = alloca i8, align 1
  %13 = alloca i8, align 1
  %14 = alloca i8, align 1
  %15 = alloca i32, align 4
  %16 = getelementptr inbounds nuw %"class.std::optional", ptr %8, i32 0, i32 0
  %17 = getelementptr inbounds nuw %"struct.std::_Optional_base", ptr %16, i32 0, i32 0
  store i64 %3, ptr %17, align 4
  store ptr %0, ptr %9, align 8
  store ptr %1, ptr %10, align 8
  store i32 %2, ptr %11, align 4
  %18 = zext i1 %4 to i8
  store i8 %18, ptr %12, align 1
  %19 = zext i1 %5 to i8
  store i8 %19, ptr %13, align 1
  %20 = zext i1 %6 to i8
  store i8 %20, ptr %14, align 1
  %21 = load ptr, ptr %9, align 8
  %22 = getelementptr inbounds nuw %"struct.clang::interp::Descriptor", ptr %21, i32 0, i32 0
  %23 = load ptr, ptr %10, align 8
  call void @llvm.memcpy.p0.p0.i64(ptr align 8 %22, ptr align 8 %23, i64 8, i1 false)
  %24 = getelementptr inbounds nuw %"struct.clang::interp::Descriptor", ptr %21, i32 0, i32 1
  %25 = load i32, ptr %11, align 4
  %26 = call noundef i64 @_ZN5clang6interp8primSizeENS0_8PrimTypeE(i32 noundef %25)
  %27 = trunc i64 %26 to i32
  store i32 %27, ptr %24, align 8
  %28 = getelementptr inbounds nuw %"struct.clang::interp::Descriptor", ptr %21, i32 0, i32 2
  %29 = getelementptr inbounds nuw %"struct.clang::interp::Descriptor", ptr %21, i32 0, i32 1
  %30 = load i32, ptr %29, align 8
  store i32 %30, ptr %28, align 4
  %31 = getelementptr inbounds nuw %"struct.clang::interp::Descriptor", ptr %21, i32 0, i32 3
  store i32 0, ptr %15, align 4
  %32 = call noundef i32 @_ZNKRSt8optionalIjE8value_orIiEEjOT_(ptr noundef nonnull align 4 dereferenceable(8) %8, ptr noundef nonnull align 4 dereferenceable(4) %15)
  store i32 %32, ptr %31, align 8
  %33 = getelementptr inbounds nuw %"struct.clang::interp::Descriptor", ptr %21, i32 0, i32 4
  %34 = getelementptr inbounds nuw %"struct.clang::interp::Descriptor", ptr %21, i32 0, i32 2
  %35 = load i32, ptr %34, align 4
  %36 = getelementptr inbounds nuw %"struct.clang::interp::Descriptor", ptr %21, i32 0, i32 3
  %37 = load i32, ptr %36, align 8
  %38 = add i32 %35, %37
  %39 = zext i32 %38 to i64
  %40 = call noundef i64 @_ZN5clang6interp5alignEm(i64 noundef %39)
  %41 = trunc i64 %40 to i32
  store i32 %41, ptr %33, align 4
  %42 = getelementptr inbounds nuw %"struct.clang::interp::Descriptor", ptr %21, i32 0, i32 5
  store ptr null, ptr %42, align 8
  %43 = getelementptr inbounds nuw %"struct.clang::interp::Descriptor", ptr %21, i32 0, i32 6
  store ptr null, ptr %43, align 8
  %44 = getelementptr inbounds nuw %"struct.clang::interp::Descriptor", ptr %21, i32 0, i32 7
  call void @_ZNSt8optionalIN5clang6interp8PrimTypeEEC2IRS2_TnNSt9enable_ifIX7__and_vISt6__not_ISt7is_sameIS3_NSt9remove_cvINSt16remove_referenceIT_E4typeEE4typeEEES7_IS8_ISt10in_place_tSF_EESt16is_constructibleIS2_JSB_EESt14is_convertibleISB_S2_EEEbE4typeELb1EEEOSB_(ptr noundef nonnull align 4 dereferenceable(8) %44, ptr noundef nonnull align 4 dereferenceable(4) %11) #11
  %45 = getelementptr inbounds nuw %"struct.clang::interp::Descriptor", ptr %21, i32 0, i32 8
  %46 = load i8, ptr %12, align 1
  %47 = trunc i8 %46 to i1
  %48 = zext i1 %47 to i8
  store i8 %48, ptr %45, align 8
  %49 = getelementptr inbounds nuw %"struct.clang::interp::Descriptor", ptr %21, i32 0, i32 9
  %50 = load i8, ptr %14, align 1
  %51 = trunc i8 %50 to i1
  %52 = zext i1 %51 to i8
  store i8 %52, ptr %49, align 1
  %53 = getelementptr inbounds nuw %"struct.clang::interp::Descriptor", ptr %21, i32 0, i32 10
  %54 = load i8, ptr %13, align 1
  %55 = trunc i8 %54 to i1
  %56 = zext i1 %55 to i8
  store i8 %56, ptr %53, align 2
  %57 = getelementptr inbounds nuw %"struct.clang::interp::Descriptor", ptr %21, i32 0, i32 11
  store i8 0, ptr %57, align 1
  %58 = getelementptr inbounds nuw %"struct.clang::interp::Descriptor", ptr %21, i32 0, i32 12
  store i8 0, ptr %58, align 4
  %59 = getelementptr inbounds nuw %"struct.clang::interp::Descriptor", ptr %21, i32 0, i32 13
  %60 = load i32, ptr %11, align 4
  %61 = call noundef ptr @_ZL11getCtorPrimN5clang6interp8PrimTypeE(i32 noundef %60)
  store ptr %61, ptr %59, align 8
  %62 = getelementptr inbounds nuw %"struct.clang::interp::Descriptor", ptr %21, i32 0, i32 14
  %63 = load i32, ptr %11, align 4
  %64 = call noundef ptr @_ZL11getDtorPrimN5clang6interp8PrimTypeE(i32 noundef %63)
  store ptr %64, ptr %62, align 8
  %65 = getelementptr inbounds nuw %"struct.clang::interp::Descriptor", ptr %21, i32 0, i32 15
  %66 = load i32, ptr %11, align 4
  %67 = call noundef ptr @_ZL11getMovePrimN5clang6interp8PrimTypeE(i32 noundef %66)
  store ptr %67, ptr %65, align 8
  ret void
}