; Function Attrs: mustprogress nounwind uwtable
define dso_local void @_ZN5clang6interp10DescriptorC2ERKN4llvm12PointerUnionIJPKNS_4DeclEPKNS_4ExprEEEENS0_8PrimTypeESt8optionalIjEbbb(ptr nocapture noundef nonnull writeonly align 8 dereferenceable(80) %0, ptr nocapture noundef nonnull readonly align 8 dereferenceable(8) %1, i32 noundef %2, i64 %3, i1 noundef zeroext %4, i1 noundef zeroext %5, i1 noundef zeroext %6) unnamed_addr #0 align 2 {
  %.sroa.0.0.extract.trunc = trunc i64 %3 to i32
  %8 = zext i1 %4 to i8
  %9 = zext i1 %5 to i8
  %10 = zext i1 %6 to i8
  %11 = load i64, ptr %1, align 8
  store i64 %11, ptr %0, align 8
  %12 = getelementptr inbounds nuw i8, ptr %0, i64 8
  %13 = tail call noundef i64 @_ZN5clang6interp8primSizeENS0_8PrimTypeE(i32 noundef %2) #20
  %14 = trunc i64 %13 to i32
  store i32 %14, ptr %12, align 8
  %15 = getelementptr inbounds nuw i8, ptr %0, i64 12
  store i32 %14, ptr %15, align 4
  %16 = getelementptr inbounds nuw i8, ptr %0, i64 16
  %17 = and i64 %3, 4294967296
  %.not = icmp eq i64 %17, 0
  %.0.i = select i1 %.not, i32 0, i32 %.sroa.0.0.extract.trunc
  store i32 %.0.i, ptr %16, align 8
  %18 = getelementptr inbounds nuw i8, ptr %0, i64 20
  %19 = add i32 %.0.i, 7
  %20 = add i32 %19, %14
  %21 = and i32 %20, -8
  store i32 %21, ptr %18, align 4
  %22 = getelementptr inbounds nuw i8, ptr %0, i64 24
  %23 = getelementptr inbounds nuw i8, ptr %0, i64 40
  tail call void @llvm.memset.p0.i64(ptr noundef nonnull align 8 dereferenceable(16) %22, i8 0, i64 16, i1 false)
  store i32 %2, ptr %23, align 8
  %24 = getelementptr inbounds i8, ptr %0, i64 44
  store i8 1, ptr %24, align 4
  %25 = getelementptr inbounds nuw i8, ptr %0, i64 48
  store i8 %8, ptr %25, align 8
  %26 = getelementptr inbounds nuw i8, ptr %0, i64 49
  store i8 %10, ptr %26, align 1
  %27 = getelementptr inbounds nuw i8, ptr %0, i64 50
  store i8 %9, ptr %27, align 2
  %28 = getelementptr inbounds nuw i8, ptr %0, i64 51
  store i8 0, ptr %28, align 1
  %29 = getelementptr inbounds nuw i8, ptr %0, i64 52
  store i8 0, ptr %29, align 4
  %30 = getelementptr inbounds nuw i8, ptr %0, i64 56
  switch i32 %2, label %_ZL11getCtorPrimN5clang6interp8PrimTypeE.exit [
    i32 11, label %_ZL11getCtorPrimN5clang6interp8PrimTypeE.exit.thread
    i32 8, label %_ZL11getCtorPrimN5clang6interp8PrimTypeE.exit.thread13
    i32 9, label %_ZL11getCtorPrimN5clang6interp8PrimTypeE.exit.thread15
    i32 14, label %_ZL11getCtorPrimN5clang6interp8PrimTypeE.exit.thread17
    i32 12, label %_ZL11getCtorPrimN5clang6interp8PrimTypeE.exit.thread19
  ]

_ZL11getCtorPrimN5clang6interp8PrimTypeE.exit.thread: ; preds = %7
  store ptr @_ZL6ctorTyIN5clang6interp8FloatingEEvPNS1_5BlockEPSt4bytebbbbPKNS1_10DescriptorE, ptr %30, align 8
  %31 = getelementptr inbounds nuw i8, ptr %0, i64 64
  store ptr @_ZL6dtorTyIN5clang6interp8FloatingEEvPNS1_5BlockEPSt4bytePKNS1_10DescriptorE, ptr %31, align 8
  br label %_ZL11getMovePrimN5clang6interp8PrimTypeE.exit

_ZL11getCtorPrimN5clang6interp8PrimTypeE.exit.thread13: ; preds = %7
  store ptr @_ZL6ctorTyIN5clang6interp10IntegralAPILb0EEEEvPNS1_5BlockEPSt4bytebbbbPKNS1_10DescriptorE, ptr %30, align 8
  %32 = getelementptr inbounds nuw i8, ptr %0, i64 64
  store ptr @_ZL6dtorTyIN5clang6interp10IntegralAPILb0EEEEvPNS1_5BlockEPSt4bytePKNS1_10DescriptorE, ptr %32, align 8
  br label %_ZL11getMovePrimN5clang6interp8PrimTypeE.exit

_ZL11getCtorPrimN5clang6interp8PrimTypeE.exit.thread15: ; preds = %7
  store ptr @_ZL6ctorTyIN5clang6interp10IntegralAPILb1EEEEvPNS1_5BlockEPSt4bytebbbbPKNS1_10DescriptorE, ptr %30, align 8
  %33 = getelementptr inbounds nuw i8, ptr %0, i64 64
  store ptr @_ZL6dtorTyIN5clang6interp10IntegralAPILb1EEEEvPNS1_5BlockEPSt4bytePKNS1_10DescriptorE, ptr %33, align 8
  br label %_ZL11getMovePrimN5clang6interp8PrimTypeE.exit

_ZL11getCtorPrimN5clang6interp8PrimTypeE.exit.thread17: ; preds = %7
  store ptr @_ZL6ctorTyIN5clang6interp13MemberPointerEEvPNS1_5BlockEPSt4bytebbbbPKNS1_10DescriptorE, ptr %30, align 8
  %34 = getelementptr inbounds nuw i8, ptr %0, i64 64
  store ptr @_ZL6dtorTyIN5clang6interp13MemberPointerEEvPNS1_5BlockEPSt4bytePKNS1_10DescriptorE, ptr %34, align 8
  br label %_ZL11getMovePrimN5clang6interp8PrimTypeE.exit

_ZL11getCtorPrimN5clang6interp8PrimTypeE.exit.thread19: ; preds = %7
  store ptr @_ZL6ctorTyIN5clang6interp7PointerEEvPNS1_5BlockEPSt4bytebbbbPKNS1_10DescriptorE, ptr %30, align 8
  %35 = getelementptr inbounds nuw i8, ptr %0, i64 64
  store ptr @_ZL6dtorTyIN5clang6interp7PointerEEvPNS1_5BlockEPSt4bytePKNS1_10DescriptorE, ptr %35, align 8
  br label %_ZL11getMovePrimN5clang6interp8PrimTypeE.exit

_ZL11getCtorPrimN5clang6interp8PrimTypeE.exit:    ; preds = %7
  tail call void @llvm.memset.p0.i64(ptr noundef nonnull align 8 dereferenceable(16) %30, i8 0, i64 16, i1 false)
  br label %_ZL11getMovePrimN5clang6interp8PrimTypeE.exit

_ZL11getMovePrimN5clang6interp8PrimTypeE.exit:    ; preds = %_ZL11getCtorPrimN5clang6interp8PrimTypeE.exit.thread19, %_ZL11getCtorPrimN5clang6interp8PrimTypeE.exit.thread17, %_ZL11getCtorPrimN5clang6interp8PrimTypeE.exit.thread15, %_ZL11getCtorPrimN5clang6interp8PrimTypeE.exit.thread13, %_ZL11getCtorPrimN5clang6interp8PrimTypeE.exit.thread, %_ZL11getCtorPrimN5clang6interp8PrimTypeE.exit
  %.0.i6 = phi ptr [ null, %_ZL11getCtorPrimN5clang6interp8PrimTypeE.exit ], [ @_ZL6moveTyIN5clang6interp8FloatingEEvPNS1_5BlockEPSt4byteS6_PKNS1_10DescriptorE, %_ZL11getCtorPrimN5clang6interp8PrimTypeE.exit.thread ], [ @_ZL6moveTyIN5clang6interp10IntegralAPILb0EEEEvPNS1_5BlockEPSt4byteS7_PKNS1_10DescriptorE, %_ZL11getCtorPrimN5clang6interp8PrimTypeE.exit.thread13 ], [ @_ZL6moveTyIN5clang6interp10IntegralAPILb1EEEEvPNS1_5BlockEPSt4byteS7_PKNS1_10DescriptorE, %_ZL11getCtorPrimN5clang6interp8PrimTypeE.exit.thread15 ], [ @_ZL6moveTyIN5clang6interp13MemberPointerEEvPNS1_5BlockEPSt4byteS6_PKNS1_10DescriptorE, %_ZL11getCtorPrimN5clang6interp8PrimTypeE.exit.thread17 ], [ @_ZL6moveTyIN5clang6interp7PointerEEvPNS1_5BlockEPSt4byteS6_PKNS1_10DescriptorE, %_ZL11getCtorPrimN5clang6interp8PrimTypeE.exit.thread19 ]
  %36 = getelementptr inbounds nuw i8, ptr %0, i64 72
  store ptr %.0.i6, ptr %36, align 8
  ret void
}